target datalayout = "e-m:e-p270:32:32-p271:32:32-p272:64:64-i64:64-i128:128-f80:128-n8:16:32:64-S128"
target triple = "x86_64-pc-linux-gnu"

%struct._value_string_ext = type { ptr, i32, i32, ptr, ptr }

@hf_r3_commandlength = internal global i32 0, align 4
@hf_r3_command = internal global i32 0, align 4
@r3_monthnames_ext = internal global %struct._value_string_ext { ptr @_try_val_to_str_ext_init, i32 0, i32 13, ptr @r3_monthnames, ptr @.str.1552 }, align 8
@hf_r3_definecalendar_number = internal global i32 0, align 4
@hf_r3_definecalendar_bits = internal global i32 0, align 4
@ett_r3definecalendarmonth = internal global [13 x i32] zeroinitializer, align 16
@.str.2138 = private unnamed_addr constant [8 x i8] c"Enabled\00", align 1
@.str.2139 = private unnamed_addr constant [9 x i8] c"Disabled\00", align 1
@.str.2140 = private unnamed_addr constant [33 x i8] c"Calendar Bit Field - %s (0x%08x)\00", align 1
@.str.2141 = private unnamed_addr constant [16 x i8] c"[Unknown Month]\00", align 1
@.str.2142 = private unnamed_addr constant [13 x i8] c"%s Of %s: %s\00", align 1
@r3_monthdaynames_ext = internal global %struct._value_string_ext { ptr @_try_val_to_str_ext_init, i32 0, i32 32, ptr @r3_monthdaynames, ptr @.str.2144 }, align 8
@.str.2143 = private unnamed_addr constant [14 x i8] c"[Unknown Day]\00", align 1

; Function Attrs: null_pointer_is_valid sspstrong uwtable
define internal void @dissect_r3_cmd_definecalendar(ptr noundef %0, i32 noundef %1, i32 noundef %2, ptr noundef %3, ptr noundef %4) #0 {
  %6 = alloca ptr, align 8
  %7 = alloca i32, align 4
  %8 = alloca i32, align 4
  %9 = alloca ptr, align 8
  %10 = alloca ptr, align 8
  %11 = alloca i8, align 1
  %12 = alloca ptr, align 8
  %13 = alloca ptr, align 8
  %14 = alloca i32, align 4
  %15 = alloca i32, align 4
  %16 = alloca i32, align 4
  %17 = alloca ptr, align 8
  %18 = alloca i32, align 4
  store ptr %0, ptr %6, align 8
  store i32 %1, ptr %7, align 4
  store i32 %2, ptr %8, align 4
  store ptr %3, ptr %9, align 8
  store ptr %4, ptr %10, align 8
  call void @llvm.lifetime.start.p0(i64 1, ptr %11) #5
  call void @llvm.lifetime.start.p0(i64 8, ptr %12) #5
  call void @llvm.lifetime.start.p0(i64 8, ptr %13) #5
  call void @llvm.lifetime.start.p0(i64 4, ptr %14) #5
  %19 = load ptr, ptr %10, align 8
  %20 = icmp ne ptr %19, null
  br i1 %20, label %22, label %21

21:                                               ; preds = %5
  store i32 1, ptr %15, align 4
  br label %103

22:                                               ; preds = %5
  %23 = load ptr, ptr %6, align 8
  %24 = load i32, ptr %7, align 4
  %25 = add i32 %24, 0
  %26 = call zeroext i8 @tvb_get_uint8(ptr noundef %23, i32 noundef %25)
  store i8 %26, ptr %11, align 1
  %27 = load ptr, ptr %6, align 8
  %28 = load i32, ptr %7, align 4
  %29 = add i32 %28, 2
  %30 = load i8, ptr %11, align 1
  %31 = zext i8 %30 to i32
  %32 = sub i32 %31, 2
  %33 = call ptr @tvb_new_subset_length(ptr noundef %27, i32 noundef %29, i32 noundef %32)
  store ptr %33, ptr %12, align 8
  %34 = load ptr, ptr %10, align 8
  %35 = load i32, ptr @hf_r3_commandlength, align 4
  %36 = load ptr, ptr %6, align 8
  %37 = load i32, ptr %7, align 4
  %38 = add i32 %37, 0
  %39 = call ptr @proto_tree_add_item(ptr noundef %34, i32 noundef %35, ptr noundef %36, i32 noundef %38, i32 noundef 1, i32 noundef -2147483648)
  %40 = load ptr, ptr %10, align 8
  %41 = load i32, ptr @hf_r3_command, align 4
  %42 = load ptr, ptr %6, align 8
  %43 = load i32, ptr %7, align 4
  %44 = add i32 %43, 1
  %45 = call ptr @proto_tree_add_item(ptr noundef %40, i32 noundef %41, ptr noundef %42, i32 noundef %44, i32 noundef 1, i32 noundef -2147483648)
  %46 = load ptr, ptr %10, align 8
  %47 = load i32, ptr @hf_r3_definecalendar_number, align 4
  %48 = load ptr, ptr %12, align 8
  %49 = call ptr @proto_tree_add_item(ptr noundef %46, i32 noundef %47, ptr noundef %48, i32 noundef 0, i32 noundef 1, i32 noundef -2147483648)
  store i32 0, ptr %14, align 4
  br label %50

50:                                               ; preds = %99, %22
  %51 = load i32, ptr %14, align 4
  %52 = icmp ult i32 %51, 12
  br i1 %52, label %53, label %102

53:                                               ; preds = %50
  call void @llvm.lifetime.start.p0(i64 4, ptr %16) #5
  %54 = load ptr, ptr %12, align 8
  %55 = load i32, ptr %14, align 4
  %56 = mul i32 %55, 4
  %57 = add i32 %56, 1
  %58 = call i32 @tvb_get_letohl(ptr noundef %54, i32 noundef %57)
  store i32 %58, ptr %16, align 4
  call void @llvm.lifetime.start.p0(i64 8, ptr %17) #5
  %59 = load ptr, ptr %10, align 8
  %60 = load ptr, ptr %12, align 8
  %61 = load i32, ptr %14, align 4
  %62 = mul i32 %61, 4
  %63 = add i32 %62, 1
  %64 = load i32, ptr %14, align 4
  %65 = add i32 %64, 1
  %66 = zext i32 %65 to i64
  %67 = getelementptr [13 x i32], ptr @ett_r3definecalendarmonth, i64 0, i64 %66
  %68 = load i32, ptr %67, align 4
  %69 = load i32, ptr %14, align 4
  %70 = add i32 %69, 1
  %71 = call ptr @val_to_str_ext_const(i32 noundef %70, ptr noundef @r3_monthnames_ext, ptr noundef @.str.2141)
  store ptr %71, ptr %13, align 8
  %72 = load i32, ptr %16, align 4
  %73 = call ptr (ptr, ptr, i32, i32, i32, ptr, ptr, ...) @proto_tree_add_subtree_format(ptr noundef %59, ptr noundef %60, i32 noundef %63, i32 noundef 4, i32 noundef %68, ptr noundef null, ptr noundef @.str.2140, ptr noundef %71, i32 noundef %72)
  store ptr %73, ptr %17, align 8
  call void @llvm.lifetime.start.p0(i64 4, ptr %18) #5
  store i32 0, ptr %18, align 4
  br label %74

74:                                               ; preds = %95, %53
  %75 = load i32, ptr %18, align 4
  %76 = icmp ult i32 %75, 31
  br i1 %76, label %77, label %98

77:                                               ; preds = %74
  %78 = load ptr, ptr %17, align 8
  %79 = load i32, ptr @hf_r3_definecalendar_bits, align 4
  %80 = load ptr, ptr %12, align 8
  %81 = load i32, ptr %14, align 4
  %82 = mul i32 %81, 4
  %83 = add i32 %82, 1
  %84 = load i32, ptr %18, align 4
  %85 = add i32 %84, 1
  %86 = call ptr @val_to_str_ext_const(i32 noundef %85, ptr noundef @r3_monthdaynames_ext, ptr noundef @.str.2143)
  %87 = load ptr, ptr %13, align 8
  %88 = load i32, ptr %16, align 4
  %89 = load i32, ptr %18, align 4
  %90 = shl i32 1, %89
  %91 = and i32 %88, %90
  %92 = icmp ne i32 %91, 0
  %93 = select i1 %92, ptr @.str.2138, ptr @.str.2139
  %94 = call ptr (ptr, i32, ptr, i32, i32, ptr, ...) @proto_tree_add_none_format(ptr noundef %78, i32 noundef %79, ptr noundef %80, i32 noundef %83, i32 noundef 4, ptr noundef @.str.2142, ptr noundef %86, ptr noundef %87, ptr noundef %93)
  br label %95

95:                                               ; preds = %77
  %96 = load i32, ptr %18, align 4
  %97 = add i32 %96, 1
  store i32 %97, ptr %18, align 4
  br label %74, !llvm.loop !13

98:                                               ; preds = %74
  call void @llvm.lifetime.end.p0(i64 4, ptr %18) #5
  call void @llvm.lifetime.end.p0(i64 8, ptr %17) #5
  call void @llvm.lifetime.end.p0(i64 4, ptr %16) #5
  br label %99

99:                                               ; preds = %98
  %100 = load i32, ptr %14, align 4
  %101 = add i32 %100, 1
  store i32 %101, ptr %14, align 4
  br label %50, !llvm.loop !14

102:                                              ; preds = %50
  store i32 0, ptr %15, align 4
  br label %103

103:                                              ; preds = %102, %21
  call void @llvm.lifetime.end.p0(i64 4, ptr %14) #5
  call void @llvm.lifetime.end.p0(i64 8, ptr %13) #5
  call void @llvm.lifetime.end.p0(i64 8, ptr %12) #5
  call void @llvm.lifetime.end.p0(i64 1, ptr %11) #5
  %104 = load i32, ptr %15, align 4
  switch i32 %104, label %106 [
    i32 0, label %105
    i32 1, label %105
  ]

105:                                              ; preds = %103, %103
  ret void

106:                                              ; preds = %103
  unreachable
}