; Function Attrs: null_pointer_is_valid sspstrong uwtable
define internal void @dissect_r3_cmd_definecalendar(ptr noundef %0, i32 noundef %1, i32 %2, ptr readnone captures(none) %3, ptr noundef %4) #0 {
  %.not = icmp eq ptr %4, null
  br i1 %.not, label %.loopexit35, label %6

6:                                                ; preds = %5
  %7 = tail call zeroext i8 @tvb_get_uint8(ptr noundef %0, i32 noundef %1)
  %8 = add i32 %1, 2
  %9 = zext i8 %7 to i32
  %10 = add nsw i32 %9, -2
  %11 = tail call ptr @tvb_new_subset_length(ptr noundef %0, i32 noundef %8, i32 noundef %10)
  %12 = load i32, ptr @hf_r3_commandlength, align 4
  %13 = tail call ptr @proto_tree_add_item(ptr noundef nonnull %4, i32 noundef %12, ptr noundef %0, i32 noundef %1, i32 noundef 1, i32 noundef -2147483648)
  %14 = load i32, ptr @hf_r3_command, align 4
  %15 = add i32 %1, 1
  %16 = tail call ptr @proto_tree_add_item(ptr noundef nonnull %4, i32 noundef %14, ptr noundef %0, i32 noundef %15, i32 noundef 1, i32 noundef -2147483648)
  %17 = load i32, ptr @hf_r3_definecalendar_number, align 4
  %18 = tail call ptr @proto_tree_add_item(ptr noundef nonnull %4, i32 noundef %17, ptr noundef %11, i32 noundef 0, i32 noundef 1, i32 noundef -2147483648)
  br label %19

.loopexit:                                        ; preds = %28
  %exitcond39.not = icmp eq i64 %indvars.iv.next, 12
  br i1 %exitcond39.not, label %.loopexit35, label %19, !llvm.loop !13

19:                                               ; preds = %6, %.loopexit
  %indvars.iv = phi i64 [ 0, %6 ], [ %indvars.iv.next, %.loopexit ]
  %indvars.iv.tr = trunc i64 %indvars.iv to i32
  %20 = shl i32 %indvars.iv.tr, 2
  %21 = or disjoint i32 %20, 1
  %22 = tail call i32 @tvb_get_letohl(ptr noundef %11, i32 noundef %21)
  %indvars.iv.next = add nuw nsw i64 %indvars.iv, 1
  %23 = getelementptr [13 x i32], ptr @ett_r3definecalendarmonth, i64 0, i64 %indvars.iv.next
  %24 = load i32, ptr %23, align 4
  %25 = trunc nuw nsw i64 %indvars.iv.next to i32
  %26 = tail call ptr @val_to_str_ext_const(i32 noundef %25, ptr noundef nonnull @r3_monthnames_ext, ptr noundef nonnull @.str.2141)
  %27 = tail call ptr (ptr, ptr, i32, i32, i32, ptr, ptr, ...) @proto_tree_add_subtree_format(ptr noundef nonnull %4, ptr noundef %11, i32 noundef %21, i32 noundef 4, i32 noundef %24, ptr noundef null, ptr noundef nonnull @.str.2140, ptr noundef %26, i32 noundef %22)
  br label %28

28:                                               ; preds = %19, %28
  %.036 = phi i32 [ 0, %19 ], [ %30, %28 ]
  %29 = load i32, ptr @hf_r3_definecalendar_bits, align 4
  %30 = add nuw nsw i32 %.036, 1
  %31 = tail call ptr @val_to_str_ext_const(i32 noundef %30, ptr noundef nonnull @r3_monthdaynames_ext, ptr noundef nonnull @.str.2143)
  %32 = shl nuw nsw i32 1, %.036
  %33 = and i32 %32, %22
  %.not34 = icmp eq i32 %33, 0
  %34 = select i1 %.not34, ptr @.str.2139, ptr @.str.2138
  %35 = tail call ptr (ptr, i32, ptr, i32, i32, ptr, ...) @proto_tree_add_none_format(ptr noundef %27, i32 noundef %29, ptr noundef %11, i32 noundef %21, i32 noundef 4, ptr noundef nonnull @.str.2142, ptr noundef %31, ptr noundef %26, ptr noundef nonnull %34)
  %exitcond.not = icmp eq i32 %30, 31
  br i1 %exitcond.not, label %.loopexit, label %28, !llvm.loop !14

.loopexit35:                                      ; preds = %.loopexit, %5
  ret void
}